target datalayout = "e-m:e-p270:32:32-p271:32:32-p272:64:64-i64:64-i128:128-f80:128-n8:16:32:64-S128"
target triple = "x86_64-pc-linux-gnu"

%"class.logging::LogMessage" = type <{ i32, [4 x i8], %"class.std::__cxx11::basic_ostringstream", i64, ptr, i32, [4 x i8] }>
%"class.std::__cxx11::basic_ostringstream" = type { %"class.std::basic_ostream.base", %"class.std::__cxx11::basic_stringbuf", %"class.std::basic_ios" }
%"class.std::basic_ostream.base" = type { ptr }
%"class.std::__cxx11::basic_stringbuf" = type { %"class.std::basic_streambuf", i32, %"class.std::__cxx11::basic_string" }
%"class.std::basic_streambuf" = type { ptr, ptr, ptr, ptr, ptr, ptr, ptr, %"class.std::locale" }
%"class.std::locale" = type { ptr }
%"class.std::__cxx11::basic_string" = type { %"struct.std::__cxx11::basic_string<char>::_Alloc_hider", i64, %union.anon }
%"struct.std::__cxx11::basic_string<char>::_Alloc_hider" = type { ptr }
%union.anon = type { i64, [8 x i8] }
%"class.std::basic_ios" = type { %"class.std::ios_base", ptr, i8, i8, ptr, ptr, ptr, ptr }
%"class.std::ios_base" = type { ptr, i64, i64, i32, i32, i32, ptr, %"struct.std::ios_base::_Words", [8 x %"struct.std::ios_base::_Words"], i32, ptr, %"class.std::locale" }
%"struct.std::ios_base::_Words" = type { ptr, i64 }
%"class.std::unique_ptr.42" = type { %"struct.std::__uniq_ptr_data.43" }
%"struct.std::__uniq_ptr_data.43" = type { %"class.std::__uniq_ptr_impl.44" }
%"class.std::__uniq_ptr_impl.44" = type { %"class.std::tuple.45" }
%"class.std::tuple.45" = type { %"struct.std::_Tuple_impl.46" }
%"struct.std::_Tuple_impl.46" = type { %"struct.std::_Head_base.49" }
%"struct.std::_Head_base.49" = type { ptr }
%"class.net::SpdyFramer" = type <{ ptr, i32, i32, i32, [4 x i8], i64, i64, i64, i64, i64, %"class.net::SpdyFramer::CharBuffer", i32, i32, i32, i32, %"struct.net::SpdyFramer::SpdySettingsScratch", %"class.std::unique_ptr.2", %"class.std::unique_ptr.10", %"class.std::unique_ptr.10", %"class.std::unique_ptr.18", %"class.std::unique_ptr.26", ptr, ptr, %"class.std::unique_ptr.34", ptr, %"class.std::__cxx11::basic_string", %"class.std::unique_ptr.42", i32, i8, i8, i8, i8, i8, i8, i8, [5 x i8] }>
%"class.net::SpdyFramer::CharBuffer" = type { %"class.std::unique_ptr", i64, i64 }
%"class.std::unique_ptr" = type { %"struct.std::__uniq_ptr_data" }
%"struct.std::__uniq_ptr_data" = type { %"class.std::__uniq_ptr_impl" }
%"class.std::__uniq_ptr_impl" = type { %"class.std::tuple" }
%"class.std::tuple" = type { %"struct.std::_Tuple_impl" }
%"struct.std::_Tuple_impl" = type { %"struct.std::_Head_base.1" }
%"struct.std::_Head_base.1" = type { ptr }
%"struct.net::SpdyFramer::SpdySettingsScratch" = type <{ %"class.net::SpdyFramer::CharBuffer", i32, [4 x i8] }>
%"class.std::unique_ptr.2" = type { %"struct.std::__uniq_ptr_data.3" }
%"struct.std::__uniq_ptr_data.3" = type { %"class.std::__uniq_ptr_impl.4" }
%"class.std::__uniq_ptr_impl.4" = type { %"class.std::tuple.5" }
%"class.std::tuple.5" = type { %"struct.std::_Tuple_impl.6" }
%"struct.std::_Tuple_impl.6" = type { %"struct.std::_Head_base.9" }
%"struct.std::_Head_base.9" = type { ptr }
%"class.std::unique_ptr.10" = type { %"struct.std::__uniq_ptr_data.11" }
%"struct.std::__uniq_ptr_data.11" = type { %"class.std::__uniq_ptr_impl.12" }
%"class.std::__uniq_ptr_impl.12" = type { %"class.std::tuple.13" }
%"class.std::tuple.13" = type { %"struct.std::_Tuple_impl.14" }
%"struct.std::_Tuple_impl.14" = type { %"struct.std::_Head_base.17" }
%"struct.std::_Head_base.17" = type { ptr }
%"class.std::unique_ptr.18" = type { %"struct.std::__uniq_ptr_data.19" }
%"struct.std::__uniq_ptr_data.19" = type { %"class.std::__uniq_ptr_impl.20" }
%"class.std::__uniq_ptr_impl.20" = type { %"class.std::tuple.21" }
%"class.std::tuple.21" = type { %"struct.std::_Tuple_impl.22" }
%"struct.std::_Tuple_impl.22" = type { %"struct.std::_Head_base.25" }
%"struct.std::_Head_base.25" = type { ptr }
%"class.std::unique_ptr.26" = type { %"struct.std::__uniq_ptr_data.27" }
%"struct.std::__uniq_ptr_data.27" = type { %"class.std::__uniq_ptr_impl.28" }
%"class.std::__uniq_ptr_impl.28" = type { %"class.std::tuple.29" }
%"class.std::tuple.29" = type { %"struct.std::_Tuple_impl.30" }
%"struct.std::_Tuple_impl.30" = type { %"struct.std::_Head_base.33" }
%"struct.std::_Head_base.33" = type { ptr }
%"class.std::unique_ptr.34" = type { %"struct.std::__uniq_ptr_data.35" }
%"struct.std::__uniq_ptr_data.35" = type { %"class.std::__uniq_ptr_impl.36" }
%"class.std::__uniq_ptr_impl.36" = type { %"class.std::tuple.37" }
%"class.std::tuple.37" = type { %"struct.std::_Tuple_impl.38" }
%"struct.std::_Tuple_impl.38" = type { %"struct.std::_Head_base.41" }
%"struct.std::_Head_base.41" = type { ptr }
%"class.logging::CheckOpResult" = type { ptr }
%"class.net::SpdyFrameBuilder" = type <{ %"class.std::unique_ptr", i64, i64, i64, i32, [4 x i8] }>
%"class.net::SpdySerializedFrame" = type <{ ptr, i64, i8, [7 x i8] }>
%"class.net::SpdyFrameIR" = type { ptr }
%"class.net::SpdyPingIR" = type <{ %"class.net::SpdyFrameIR", i64, i8, [7 x i8] }>

@.str = private unnamed_addr constant [121 x i8] c"generated/home/dtcxzyw/WorkSpace/Projects/compilers/llvm-opt-benchmark/bench/libquic/libquic/src/net/spdy/spdy_framer.cc\00", align 1

; Function Attrs: inlinehint mustprogress nounwind uwtable
define linkonce_odr noundef i32 @_ZN4base8ByteSwapEj(i32 noundef %0) #6 comdat {
  %2 = alloca i32, align 4
  store i32 %0, ptr %2, align 4, !tbaa !7
  %3 = load i32, ptr %2, align 4, !tbaa !7
  %4 = call i32 @llvm.bswap.i32(i32 %3)
  ret i32 %4
}

; Function Attrs: inlinehint mustprogress nounwind uwtable
define linkonce_odr noundef i32 @_ZN4base11HostToNet32Ej(i32 noundef %0) #6 comdat {
  %2 = alloca i32, align 4
  store i32 %0, ptr %2, align 4, !tbaa !7
  %3 = load i32, ptr %2, align 4, !tbaa !7
  %4 = call noundef i32 @_ZN4base8ByteSwapEj(i32 noundef %3)
  ret i32 %4
}

; Function Attrs: mustprogress uwtable
define noundef i64 @_ZNK3net10SpdyFramer18GetFrameHeaderSizeEv(ptr noundef nonnull align 8 dereferenceable(259) %0) #0 align 2 {
  %2 = alloca ptr, align 8
  store ptr %0, ptr %2, align 8, !tbaa !30
  %3 = load ptr, ptr %2, align 8
  %4 = getelementptr inbounds nuw %"class.net::SpdyFramer", ptr %3, i32 0, i32 27
  %5 = load i32, ptr %4, align 8, !tbaa !98
  %6 = call noundef i64 @_ZN3net13SpdyConstants18GetFrameHeaderSizeENS_16SpdyMajorVersionE(i32 noundef %5)
  ret i64 %6
}

; Function Attrs: mustprogress nounwind uwtable
define linkonce_odr noundef nonnull align 8 dereferenceable(8) ptr @_ZN7logging10LogMessage6streamEv(ptr noundef nonnull align 8 dereferenceable(404) %0) #4 comdat align 2 {
  %2 = alloca ptr, align 8
  store ptr %0, ptr %2, align 8, !tbaa !24
  %3 = load ptr, ptr %2, align 8
  %4 = getelementptr inbounds nuw %"class.logging::LogMessage", ptr %3, i32 0, i32 2
  ret ptr %4
}

; Function Attrs: mustprogress nounwind uwtable
define linkonce_odr noundef ptr @_ZN7logging13CheckOpResult7messageB5cxx11Ev(ptr noundef nonnull align 8 dereferenceable(8) %0) #4 comdat align 2 {
  %2 = alloca ptr, align 8
  store ptr %0, ptr %2, align 8, !tbaa !161
  %3 = load ptr, ptr %2, align 8
  %4 = getelementptr inbounds nuw %"class.logging::CheckOpResult", ptr %3, i32 0, i32 0
  %5 = load ptr, ptr %4, align 8, !tbaa !163
  ret ptr %5
}

; Function Attrs: mustprogress nounwind uwtable
define linkonce_odr noundef zeroext i1 @_ZNK7logging13CheckOpResultcvbEv(ptr noundef nonnull align 8 dereferenceable(8) %0) #4 comdat align 2 {
  %2 = alloca ptr, align 8
  store ptr %0, ptr %2, align 8, !tbaa !161
  %3 = load ptr, ptr %2, align 8
  %4 = getelementptr inbounds nuw %"class.logging::CheckOpResult", ptr %3, i32 0, i32 0
  %5 = load ptr, ptr %4, align 8, !tbaa !163
  %6 = icmp ne ptr %5, null
  %7 = xor i1 %6, true
  ret i1 %7
}

; Function Attrs: mustprogress nounwind uwtable
define linkonce_odr void @_ZN7logging13CheckOpResultC2EPNSt7__cxx1112basic_stringIcSt11char_traitsIcESaIcEEE(ptr noundef nonnull align 8 dereferenceable(8) %0, ptr noundef %1) unnamed_addr #4 comdat align 2 {
  %3 = alloca ptr, align 8
  %4 = alloca ptr, align 8
  store ptr %0, ptr %3, align 8, !tbaa !161
  store ptr %1, ptr %4, align 8, !tbaa !120
  %5 = load ptr, ptr %3, align 8
  %6 = getelementptr inbounds nuw %"class.logging::CheckOpResult", ptr %5, i32 0, i32 0
  %7 = load ptr, ptr %4, align 8, !tbaa !120
  store ptr %7, ptr %6, align 8, !tbaa !163
  ret void
}

; Function Attrs: mustprogress uwtable
define linkonce_odr noundef zeroext i1 @_ZN3net16SpdyFrameBuilder11WriteUInt64Em(ptr noundef nonnull align 8 dereferenceable(36) %0, i64 noundef %1) #0 comdat align 2 {
  %3 = alloca ptr, align 8
  %4 = alloca i64, align 8
  %5 = alloca i32, align 4
  %6 = alloca i32, align 4
  store ptr %0, ptr %3, align 8, !tbaa !246
  store i64 %1, ptr %4, align 8, !tbaa !28
  %7 = load ptr, ptr %3, align 8
  call void @llvm.lifetime.start.p0(i64 4, ptr %5) #18
  %8 = load i64, ptr %4, align 8, !tbaa !28
  %9 = lshr i64 %8, 32
  %10 = trunc i64 %9 to i32
  %11 = call noundef i32 @_ZN4base11HostToNet32Ej(i32 noundef %10)
  store i32 %11, ptr %5, align 4, !tbaa !7
  call void @llvm.lifetime.start.p0(i64 4, ptr %6) #18
  %12 = load i64, ptr %4, align 8, !tbaa !28
  %13 = trunc i64 %12 to i32
  %14 = call noundef i32 @_ZN4base11HostToNet32Ej(i32 noundef %13)
  store i32 %14, ptr %6, align 4, !tbaa !7
  %15 = call noundef zeroext i1 @_ZN3net16SpdyFrameBuilder10WriteBytesEPKvj(ptr noundef nonnull align 8 dereferenceable(36) %7, ptr noundef %5, i32 noundef 4)
  br i1 %15, label %16, label %18

16:                                               ; preds = %2
  %17 = call noundef zeroext i1 @_ZN3net16SpdyFrameBuilder10WriteBytesEPKvj(ptr noundef nonnull align 8 dereferenceable(36) %7, ptr noundef %6, i32 noundef 4)
  br label %18

18:                                               ; preds = %16, %2
  %19 = phi i1 [ false, %2 ], [ %17, %16 ]
  call void @llvm.lifetime.end.p0(i64 4, ptr %6) #18
  call void @llvm.lifetime.end.p0(i64 4, ptr %5) #18
  ret i1 %19
}

; Function Attrs: mustprogress nounwind uwtable
define linkonce_odr noundef zeroext i1 @_ZNK3net10SpdyPingIR6is_ackEv(ptr noundef nonnull align 8 dereferenceable(17) %0) #4 comdat align 2 {
  %2 = alloca ptr, align 8
  store ptr %0, ptr %2, align 8, !tbaa !353
  %3 = load ptr, ptr %2, align 8
  %4 = getelementptr inbounds nuw %"class.net::SpdyPingIR", ptr %3, i32 0, i32 2
  %5 = load i8, ptr %4, align 8, !tbaa !357, !range !105, !noundef !106
  %6 = trunc i8 %5 to i1
  ret i1 %6
}

; Function Attrs: mustprogress uwtable
define linkonce_odr noundef zeroext i1 @_ZN3net16SpdyFrameBuilder11WriteUInt32Ej(ptr noundef nonnull align 8 dereferenceable(36) %0, i32 noundef %1) #0 comdat align 2 {
  %3 = alloca ptr, align 8
  %4 = alloca i32, align 4
  store ptr %0, ptr %3, align 8, !tbaa !246
  store i32 %1, ptr %4, align 4, !tbaa !7
  %5 = load ptr, ptr %3, align 8
  %6 = load i32, ptr %4, align 4, !tbaa !7
  %7 = call noundef i32 @_ZN4base11HostToNet32Ej(i32 noundef %6)
  store i32 %7, ptr %4, align 4, !tbaa !7
  %8 = call noundef zeroext i1 @_ZN3net16SpdyFrameBuilder10WriteBytesEPKvj(ptr noundef nonnull align 8 dereferenceable(36) %5, ptr noundef %4, i32 noundef 4)
  ret i1 %8
}

; Function Attrs: mustprogress nounwind uwtable
define linkonce_odr noundef i64 @_ZNK3net10SpdyPingIR2idEv(ptr noundef nonnull align 8 dereferenceable(17) %0) #4 comdat align 2 {
  %2 = alloca ptr, align 8
  store ptr %0, ptr %2, align 8, !tbaa !353
  %3 = load ptr, ptr %2, align 8
  %4 = getelementptr inbounds nuw %"class.net::SpdyPingIR", ptr %3, i32 0, i32 1
  %5 = load i64, ptr %4, align 8, !tbaa !355
  ret i64 %5
}

; Function Attrs: mustprogress uwtable
define noundef i64 @_ZNK3net10SpdyFramer11GetPingSizeEv(ptr noundef nonnull align 8 dereferenceable(259) %0) #0 align 2 {
  %2 = alloca i64, align 8
  %3 = alloca ptr, align 8
  store ptr %0, ptr %3, align 8, !tbaa !30
  %4 = load ptr, ptr %3, align 8
  %5 = getelementptr inbounds nuw %"class.net::SpdyFramer", ptr %4, i32 0, i32 27
  %6 = load i32, ptr %5, align 8, !tbaa !98
  %7 = icmp eq i32 %6, 1
  br i1 %7, label %8, label %11

8:                                                ; preds = %1
  %9 = call noundef i64 @_ZNK3net10SpdyFramer18GetFrameHeaderSizeEv(ptr noundef nonnull align 8 dereferenceable(259) %4)
  %10 = add i64 %9, 4
  store i64 %10, ptr %2, align 8
  br label %14

11:                                               ; preds = %1
  %12 = call noundef i64 @_ZNK3net10SpdyFramer18GetFrameHeaderSizeEv(ptr noundef nonnull align 8 dereferenceable(259) %4)
  %13 = add i64 %12, 8
  store i64 %13, ptr %2, align 8
  br label %14

14:                                               ; preds = %11, %8
  %15 = load i64, ptr %2, align 8
  ret i64 %15
}

; Function Attrs: mustprogress uwtable
define void @_ZNK3net10SpdyFramer13SerializePingERKNS_10SpdyPingIRE(ptr dead_on_unwind noalias writable sret(%"class.net::SpdySerializedFrame") align 8 %0, ptr noundef nonnull align 8 dereferenceable(259) %1, ptr noundef nonnull align 8 dereferenceable(17) %2) #0 align 2 personality ptr @__gxx_personality_v0 {
  %4 = alloca ptr, align 8
  %5 = alloca ptr, align 8
  %6 = alloca ptr, align 8
  %7 = alloca %"class.net::SpdyFrameBuilder", align 8
  %8 = alloca ptr, align 8
  %9 = alloca i32, align 4
  %10 = alloca i8, align 1
  %11 = alloca %"class.logging::CheckOpResult", align 8
  %12 = alloca %"class.logging::LogMessage", align 8
  store ptr %0, ptr %4, align 8
  store ptr %1, ptr %5, align 8, !tbaa !30
  store ptr %2, ptr %6, align 8, !tbaa !353
  %13 = load ptr, ptr %5, align 8
  call void @llvm.lifetime.start.p0(i64 40, ptr %7) #18
  %14 = call noundef i64 @_ZNK3net10SpdyFramer11GetPingSizeEv(ptr noundef nonnull align 8 dereferenceable(259) %13)
  %15 = getelementptr inbounds nuw %"class.net::SpdyFramer", ptr %13, i32 0, i32 27
  %16 = load i32, ptr %15, align 8, !tbaa !98
  call void @_ZN3net16SpdyFrameBuilderC1EmNS_16SpdyMajorVersionE(ptr noundef nonnull align 8 dereferenceable(36) %7, i64 noundef %14, i32 noundef %16)
  %17 = getelementptr inbounds nuw %"class.net::SpdyFramer", ptr %13, i32 0, i32 27
  %18 = load i32, ptr %17, align 8, !tbaa !98
  %19 = icmp eq i32 %18, 1
  br i1 %19, label %20, label %33

20:                                               ; preds = %3
  %21 = invoke noundef zeroext i1 @_ZN3net16SpdyFrameBuilder23WriteControlFrameHeaderERKNS_10SpdyFramerENS_13SpdyFrameTypeEh(ptr noundef nonnull align 8 dereferenceable(36) %7, ptr noundef nonnull align 8 dereferenceable(259) %13, i32 noundef 5, i8 noundef zeroext 0)
          to label %22 unwind label %29

22:                                               ; preds = %20
  %23 = load ptr, ptr %6, align 8, !tbaa !353
  %24 = invoke noundef i64 @_ZNK3net10SpdyPingIR2idEv(ptr noundef nonnull align 8 dereferenceable(17) %23)
          to label %25 unwind label %29

25:                                               ; preds = %22
  %26 = trunc i64 %24 to i32
  %27 = invoke noundef zeroext i1 @_ZN3net16SpdyFrameBuilder11WriteUInt32Ej(ptr noundef nonnull align 8 dereferenceable(36) %7, i32 noundef %26)
          to label %28 unwind label %29

28:                                               ; preds = %25
  br label %55

29:                                               ; preds = %79, %25, %22, %20
  %30 = landingpad { ptr, i32 }
          cleanup
  %31 = extractvalue { ptr, i32 } %30, 0
  store ptr %31, ptr %8, align 8
  %32 = extractvalue { ptr, i32 } %30, 1
  store i32 %32, ptr %9, align 4
  br label %82

33:                                               ; preds = %3
  call void @llvm.lifetime.start.p0(i64 1, ptr %10) #18
  store i8 0, ptr %10, align 1, !tbaa !12
  %34 = load ptr, ptr %6, align 8, !tbaa !353
  %35 = invoke noundef zeroext i1 @_ZNK3net10SpdyPingIR6is_ackEv(ptr noundef nonnull align 8 dereferenceable(17) %34)
          to label %36 unwind label %42

36:                                               ; preds = %33
  br i1 %35, label %37, label %46

37:                                               ; preds = %36
  %38 = load i8, ptr %10, align 1, !tbaa !12
  %39 = zext i8 %38 to i32
  %40 = or i32 %39, 1
  %41 = trunc i32 %40 to i8
  store i8 %41, ptr %10, align 1, !tbaa !12
  br label %46

42:                                               ; preds = %52, %49, %46, %33
  %43 = landingpad { ptr, i32 }
          cleanup
  %44 = extractvalue { ptr, i32 } %43, 0
  store ptr %44, ptr %8, align 8
  %45 = extractvalue { ptr, i32 } %43, 1
  store i32 %45, ptr %9, align 4
  call void @llvm.lifetime.end.p0(i64 1, ptr %10) #18
  br label %82

46:                                               ; preds = %37, %36
  %47 = load i8, ptr %10, align 1, !tbaa !12
  %48 = invoke noundef zeroext i1 @_ZN3net16SpdyFrameBuilder13BeginNewFrameERKNS_10SpdyFramerENS_13SpdyFrameTypeEhj(ptr noundef nonnull align 8 dereferenceable(36) %7, ptr noundef nonnull align 8 dereferenceable(259) %13, i32 noundef 5, i8 noundef zeroext %47, i32 noundef 0)
          to label %49 unwind label %42

49:                                               ; preds = %46
  %50 = load ptr, ptr %6, align 8, !tbaa !353
  %51 = invoke noundef i64 @_ZNK3net10SpdyPingIR2idEv(ptr noundef nonnull align 8 dereferenceable(17) %50)
          to label %52 unwind label %42

52:                                               ; preds = %49
  %53 = invoke noundef zeroext i1 @_ZN3net16SpdyFrameBuilder11WriteUInt64Em(ptr noundef nonnull align 8 dereferenceable(36) %7, i64 noundef %51)
          to label %54 unwind label %42

54:                                               ; preds = %52
  call void @llvm.lifetime.end.p0(i64 1, ptr %10) #18
  br label %55

55:                                               ; preds = %54, %28
  call void @llvm.lifetime.start.p0(i64 8, ptr %11) #18
  invoke void @_ZN7logging13CheckOpResultC2EPNSt7__cxx1112basic_stringIcSt11char_traitsIcESaIcEEE(ptr noundef nonnull align 8 dereferenceable(8) %11, ptr noundef null)
          to label %56 unwind label %60

56:                                               ; preds = %55
  %57 = invoke noundef zeroext i1 @_ZNK7logging13CheckOpResultcvbEv(ptr noundef nonnull align 8 dereferenceable(8) %11)
          to label %58 unwind label %60

58:                                               ; preds = %56
  br i1 %57, label %59, label %64

59:                                               ; preds = %58
  br label %79

60:                                               ; preds = %56, %55
  %61 = landingpad { ptr, i32 }
          cleanup
  %62 = extractvalue { ptr, i32 } %61, 0
  store ptr %62, ptr %8, align 8
  %63 = extractvalue { ptr, i32 } %61, 1
  store i32 %63, ptr %9, align 4
  br label %81

64:                                               ; preds = %58
  call void @llvm.lifetime.start.p0(i64 408, ptr %12) #18
  %65 = invoke noundef ptr @_ZN7logging13CheckOpResult7messageB5cxx11Ev(ptr noundef nonnull align 8 dereferenceable(8) %11)
          to label %66 unwind label %70

66:                                               ; preds = %64
  invoke void @_ZN7logging10LogMessageC1EPKciiPNSt7__cxx1112basic_stringIcSt11char_traitsIcESaIcEEE(ptr noundef nonnull align 8 dereferenceable(404) %12, ptr noundef @.str, i32 noundef 2635, i32 noundef 0, ptr noundef %65)
          to label %67 unwind label %70

67:                                               ; preds = %66
  %68 = invoke noundef nonnull align 8 dereferenceable(8) ptr @_ZN7logging10LogMessage6streamEv(ptr noundef nonnull align 8 dereferenceable(404) %12)
          to label %69 unwind label %74

69:                                               ; preds = %67
  call void @_ZN7logging10LogMessageD1Ev(ptr noundef nonnull align 8 dereferenceable(404) %12) #18
  call void @llvm.lifetime.end.p0(i64 408, ptr %12) #18
  br label %79

70:                                               ; preds = %66, %64
  %71 = landingpad { ptr, i32 }
          cleanup
  %72 = extractvalue { ptr, i32 } %71, 0
  store ptr %72, ptr %8, align 8
  %73 = extractvalue { ptr, i32 } %71, 1
  store i32 %73, ptr %9, align 4
  br label %78

74:                                               ; preds = %67
  %75 = landingpad { ptr, i32 }
          cleanup
  %76 = extractvalue { ptr, i32 } %75, 0
  store ptr %76, ptr %8, align 8
  %77 = extractvalue { ptr, i32 } %75, 1
  store i32 %77, ptr %9, align 4
  call void @_ZN7logging10LogMessageD1Ev(ptr noundef nonnull align 8 dereferenceable(404) %12) #18
  br label %78

78:                                               ; preds = %74, %70
  call void @llvm.lifetime.end.p0(i64 408, ptr %12) #18
  br label %81

79:                                               ; preds = %69, %59
  call void @llvm.lifetime.end.p0(i64 8, ptr %11) #18
  invoke void @_ZN3net16SpdyFrameBuilder4takeEv(ptr dead_on_unwind writable sret(%"class.net::SpdySerializedFrame") align 8 %0, ptr noundef nonnull align 8 dereferenceable(36) %7)
          to label %80 unwind label %29

80:                                               ; preds = %79
  call void @_ZN3net16SpdyFrameBuilderD1Ev(ptr noundef nonnull align 8 dereferenceable(36) %7) #18
  call void @llvm.lifetime.end.p0(i64 40, ptr %7) #18
  ret void

81:                                               ; preds = %78, %60
  call void @llvm.lifetime.end.p0(i64 8, ptr %11) #18
  br label %82

82:                                               ; preds = %81, %42, %29
  call void @_ZN3net16SpdyFrameBuilderD1Ev(ptr noundef nonnull align 8 dereferenceable(36) %7) #18
  call void @llvm.lifetime.end.p0(i64 40, ptr %7) #18
  br label %83

83:                                               ; preds = %82
  %84 = load ptr, ptr %8, align 8
  %85 = load i32, ptr %9, align 4
  %86 = insertvalue { ptr, i32 } poison, ptr %84, 0
  %87 = insertvalue { ptr, i32 } %86, i32 %85, 1
  resume { ptr, i32 } %87
}