; Function Attrs: mustprogress uwtable
define void @_ZNK3net10SpdyFramer13SerializePingERKNS_10SpdyPingIRE(ptr dead_on_unwind noalias writable sret(%"class.net::SpdySerializedFrame") align 8 %0, ptr noundef nonnull align 8 dereferenceable(259) %1, ptr noundef nonnull readonly align 8 captures(none) dereferenceable(17) %2) local_unnamed_addr #0 align 2 personality ptr @__gxx_personality_v0 {
  %4 = alloca i32, align 4
  %5 = alloca i32, align 4
  %6 = alloca i32, align 4
  %7 = alloca %"class.net::SpdyFrameBuilder", align 8
  call void @llvm.lifetime.start.p0(i64 40, ptr nonnull %7) #25
  %8 = getelementptr inbounds nuw i8, ptr %1, i64 248
  %9 = load i32, ptr %8, align 8, !tbaa !82
  %10 = icmp eq i32 %9, 1
  %.3.i = select i1 %10, i64 4, i64 8
  %11 = tail call noundef i64 @_ZN3net13SpdyConstants18GetFrameHeaderSizeENS_16SpdyMajorVersionE(i32 noundef %9)
  %12 = add i64 %.3.i, %11
  %13 = load i32, ptr %8, align 8, !tbaa !82
  call void @_ZN3net16SpdyFrameBuilderC1EmNS_16SpdyMajorVersionE(ptr noundef nonnull align 8 dereferenceable(36) %7, i64 noundef %12, i32 noundef %13)
  %14 = load i32, ptr %8, align 8, !tbaa !82
  %15 = icmp eq i32 %14, 1
  br i1 %15, label %16, label %26

16:                                               ; preds = %3
  %17 = invoke noundef zeroext i1 @_ZN3net16SpdyFrameBuilder23WriteControlFrameHeaderERKNS_10SpdyFramerENS_13SpdyFrameTypeEh(ptr noundef nonnull align 8 dereferenceable(36) %7, ptr noundef nonnull align 8 dereferenceable(259) %1, i32 noundef 5, i8 noundef zeroext 0)
          to label %18 unwind label %24

18:                                               ; preds = %16
  %19 = getelementptr inbounds nuw i8, ptr %2, i64 8
  %20 = load i64, ptr %19, align 8, !tbaa !296
  %21 = trunc i64 %20 to i32
  call void @llvm.lifetime.start.p0(i64 4, ptr nonnull %6)
  %22 = call noundef i32 @llvm.bswap.i32(i32 %21)
  store i32 %22, ptr %6, align 4, !tbaa !118
  %23 = invoke noundef zeroext i1 @_ZN3net16SpdyFrameBuilder10WriteBytesEPKvj(ptr noundef nonnull align 8 dereferenceable(36) %7, ptr noundef nonnull %6, i32 noundef 4)
          to label %_ZN3net16SpdyFrameBuilder11WriteUInt32Ej.exit unwind label %24

_ZN3net16SpdyFrameBuilder11WriteUInt32Ej.exit:    ; preds = %18
  call void @llvm.lifetime.end.p0(i64 4, ptr nonnull %6)
  br label %43

24:                                               ; preds = %18, %43, %16
  %25 = landingpad { ptr, i32 }
          cleanup
  br label %45

26:                                               ; preds = %3
  %27 = getelementptr inbounds nuw i8, ptr %2, i64 16
  %28 = load i8, ptr %27, align 8, !tbaa !298, !range !85, !noundef !86
  %29 = invoke noundef zeroext i1 @_ZN3net16SpdyFrameBuilder13BeginNewFrameERKNS_10SpdyFramerENS_13SpdyFrameTypeEhj(ptr noundef nonnull align 8 dereferenceable(36) %7, ptr noundef nonnull align 8 dereferenceable(259) %1, i32 noundef 5, i8 noundef zeroext %28, i32 noundef 0)
          to label %32 unwind label %30

30:                                               ; preds = %41, %32, %26
  %31 = landingpad { ptr, i32 }
          cleanup
  br label %45

32:                                               ; preds = %26
  %33 = getelementptr inbounds nuw i8, ptr %2, i64 8
  %34 = load i64, ptr %33, align 8, !tbaa !296
  call void @llvm.lifetime.start.p0(i64 4, ptr nonnull %4) #25
  %35 = lshr i64 %34, 32
  %36 = trunc nuw i64 %35 to i32
  %37 = call noundef i32 @llvm.bswap.i32(i32 %36)
  store i32 %37, ptr %4, align 4, !tbaa !118
  call void @llvm.lifetime.start.p0(i64 4, ptr nonnull %5) #25
  %38 = trunc i64 %34 to i32
  %39 = call noundef i32 @llvm.bswap.i32(i32 %38)
  store i32 %39, ptr %5, align 4, !tbaa !118
  %40 = invoke noundef zeroext i1 @_ZN3net16SpdyFrameBuilder10WriteBytesEPKvj(ptr noundef nonnull align 8 dereferenceable(36) %7, ptr noundef nonnull %4, i32 noundef 4)
          to label %.noexc unwind label %30

.noexc:                                           ; preds = %32
  br i1 %40, label %41, label %_ZN3net16SpdyFrameBuilder11WriteUInt64Em.exit

41:                                               ; preds = %.noexc
  %42 = invoke noundef zeroext i1 @_ZN3net16SpdyFrameBuilder10WriteBytesEPKvj(ptr noundef nonnull align 8 dereferenceable(36) %7, ptr noundef nonnull %5, i32 noundef 4)
          to label %_ZN3net16SpdyFrameBuilder11WriteUInt64Em.exit unwind label %30

_ZN3net16SpdyFrameBuilder11WriteUInt64Em.exit:    ; preds = %41, %.noexc
  call void @llvm.lifetime.end.p0(i64 4, ptr nonnull %5) #25
  call void @llvm.lifetime.end.p0(i64 4, ptr nonnull %4) #25
  br label %43

43:                                               ; preds = %_ZN3net16SpdyFrameBuilder11WriteUInt32Ej.exit, %_ZN3net16SpdyFrameBuilder11WriteUInt64Em.exit
  invoke void @_ZN3net16SpdyFrameBuilder4takeEv(ptr dead_on_unwind writable sret(%"class.net::SpdySerializedFrame") align 8 %0, ptr noundef nonnull align 8 dereferenceable(36) %7)
          to label %44 unwind label %24

44:                                               ; preds = %43
  call void @_ZN3net16SpdyFrameBuilderD1Ev(ptr noundef nonnull align 8 dereferenceable(36) %7) #25
  call void @llvm.lifetime.end.p0(i64 40, ptr nonnull %7) #25
  ret void

45:                                               ; preds = %30, %24
  %.pn = phi { ptr, i32 } [ %25, %24 ], [ %31, %30 ]
  call void @_ZN3net16SpdyFrameBuilderD1Ev(ptr noundef nonnull align 8 dereferenceable(36) %7) #25
  call void @llvm.lifetime.end.p0(i64 40, ptr nonnull %7) #25
  resume { ptr, i32 } %.pn
}